target datalayout = "e-m:e-p270:32:32-p271:32:32-p272:64:64-i64:64-i128:128-f80:128-n8:16:32:64-S128"
target triple = "x86_64-pc-linux-gnu"

%struct.Mig_Man_t_ = type { ptr, i32, i32, i32, %struct.Vec_Ptr_t_, %struct.Vec_Int_t_, %struct.Vec_Int_t_, ptr, i32, i32, %struct.Vec_Int_t_, %struct.Vec_Int_t_, %struct.Vec_Int_t_, %struct.Vec_Int_t_, %struct.Vec_Int_t_, ptr }
%struct.Vec_Ptr_t_ = type { i32, i32, ptr }
%struct.Vec_Int_t_ = type { i32, i32, ptr }
%struct.Mig_Obj_t_ = type { [4 x %struct.Mig_Fan_t_] }
%struct.Mig_Fan_t_ = type { i32 }

; Function Attrs: nounwind uwtable
define internal i32 @Mig_IdCell(i32 noundef %0) #0 {
  %2 = alloca i32, align 4
  store i32 %0, ptr %2, align 4
  %3 = load i32, ptr %2, align 4
  %4 = and i32 %3, 4095
  ret i32 %4
}

; Function Attrs: nounwind uwtable
define internal i32 @Vec_IntEntry(ptr noundef %0, i32 noundef %1) #0 {
  %3 = alloca ptr, align 8
  %4 = alloca i32, align 4
  store ptr %0, ptr %3, align 8
  store i32 %1, ptr %4, align 4
  %5 = load ptr, ptr %3, align 8
  %6 = getelementptr inbounds %struct.Vec_Int_t_, ptr %5, i32 0, i32 2
  %7 = load ptr, ptr %6, align 8
  %8 = load i32, ptr %4, align 4
  %9 = sext i32 %8 to i64
  %10 = getelementptr inbounds i32, ptr %7, i64 %9
  %11 = load i32, ptr %10, align 4
  ret i32 %11
}

; Function Attrs: nounwind uwtable
define internal i32 @Mig_ObjId(ptr noundef %0) #0 {
  %2 = alloca ptr, align 8
  store ptr %0, ptr %2, align 8
  %3 = load ptr, ptr %2, align 8
  %4 = call i32 @Mig_FanId(ptr noundef %3, i32 noundef 3)
  ret i32 %4
}

; Function Attrs: nounwind uwtable
define internal i32 @Vec_IntSize(ptr noundef %0) #0 {
  %2 = alloca ptr, align 8
  store ptr %0, ptr %2, align 8
  %3 = load ptr, ptr %2, align 8
  %4 = getelementptr inbounds %struct.Vec_Int_t_, ptr %3, i32 0, i32 1
  %5 = load i32, ptr %4, align 4
  ret i32 %5
}

; Function Attrs: nounwind uwtable
define internal ptr @Mig_ObjMan(ptr noundef %0) #0 {
  %2 = alloca ptr, align 8
  store ptr %0, ptr %2, align 8
  %3 = load ptr, ptr %2, align 8
  %4 = load ptr, ptr %2, align 8
  %5 = call i32 @Mig_ObjId(ptr noundef %4)
  %6 = call i32 @Mig_IdCell(i32 noundef %5)
  %7 = sext i32 %6 to i64
  %8 = sub i64 0, %7
  %9 = getelementptr inbounds %struct.Mig_Obj_t_, ptr %3, i64 %8
  %10 = getelementptr inbounds %struct.Mig_Obj_t_, ptr %9, i64 -1
  %11 = load ptr, ptr %10, align 8
  ret ptr %11
}

; Function Attrs: nounwind uwtable
define internal i32 @Mig_FanId(ptr noundef %0, i32 noundef %1) #0 {
  %3 = alloca ptr, align 8
  %4 = alloca i32, align 4
  store ptr %0, ptr %3, align 8
  store i32 %1, ptr %4, align 4
  %5 = load ptr, ptr %3, align 8
  %6 = getelementptr inbounds %struct.Mig_Obj_t_, ptr %5, i32 0, i32 0
  %7 = load i32, ptr %4, align 4
  %8 = sext i32 %7 to i64
  %9 = getelementptr inbounds [4 x %struct.Mig_Fan_t_], ptr %6, i64 0, i64 %8
  %10 = load i32, ptr %9, align 4
  %11 = lshr i32 %10, 1
  ret i32 %11
}

; Function Attrs: nounwind uwtable
define internal i32 @Mig_FanIsNone(ptr noundef %0, i32 noundef %1) #0 {
  %3 = alloca ptr, align 8
  %4 = alloca i32, align 4
  store ptr %0, ptr %3, align 8
  store i32 %1, ptr %4, align 4
  %5 = load ptr, ptr %3, align 8
  %6 = getelementptr inbounds %struct.Mig_Obj_t_, ptr %5, i32 0, i32 0
  %7 = load i32, ptr %4, align 4
  %8 = sext i32 %7 to i64
  %9 = getelementptr inbounds [4 x %struct.Mig_Fan_t_], ptr %6, i64 0, i64 %8
  %10 = load i32, ptr %9, align 4
  %11 = lshr i32 %10, 1
  %12 = icmp eq i32 %11, 2147483647
  %13 = zext i1 %12 to i32
  ret i32 %13
}

; Function Attrs: nounwind uwtable
define internal void @Vec_IntGrow(ptr noundef %0, i32 noundef %1) #0 {
  %3 = alloca ptr, align 8
  %4 = alloca i32, align 4
  store ptr %0, ptr %3, align 8
  store i32 %1, ptr %4, align 4
  %5 = load ptr, ptr %3, align 8
  %6 = getelementptr inbounds %struct.Vec_Int_t_, ptr %5, i32 0, i32 0
  %7 = load i32, ptr %6, align 8
  %8 = load i32, ptr %4, align 4
  %9 = icmp sge i32 %7, %8
  br i1 %9, label %10, label %11

10:                                               ; preds = %2
  br label %36

11:                                               ; preds = %2
  %12 = load ptr, ptr %3, align 8
  %13 = getelementptr inbounds %struct.Vec_Int_t_, ptr %12, i32 0, i32 2
  %14 = load ptr, ptr %13, align 8
  %15 = icmp ne ptr %14, null
  br i1 %15, label %16, label %24

16:                                               ; preds = %11
  %17 = load ptr, ptr %3, align 8
  %18 = getelementptr inbounds %struct.Vec_Int_t_, ptr %17, i32 0, i32 2
  %19 = load ptr, ptr %18, align 8
  %20 = load i32, ptr %4, align 4
  %21 = sext i32 %20 to i64
  %22 = mul i64 4, %21
  %23 = call ptr @realloc(ptr noundef %19, i64 noundef %22) #10
  br label %29

24:                                               ; preds = %11
  %25 = load i32, ptr %4, align 4
  %26 = sext i32 %25 to i64
  %27 = mul i64 4, %26
  %28 = call noalias ptr @malloc(i64 noundef %27) #11
  br label %29

29:                                               ; preds = %24, %16
  %30 = phi ptr [ %23, %16 ], [ %28, %24 ]
  %31 = load ptr, ptr %3, align 8
  %32 = getelementptr inbounds %struct.Vec_Int_t_, ptr %31, i32 0, i32 2
  store ptr %30, ptr %32, align 8
  %33 = load i32, ptr %4, align 4
  %34 = load ptr, ptr %3, align 8
  %35 = getelementptr inbounds %struct.Vec_Int_t_, ptr %34, i32 0, i32 0
  store i32 %33, ptr %35, align 8
  br label %36

36:                                               ; preds = %29, %10
  ret void
}

; Function Attrs: nounwind uwtable
define internal i32 @Mig_ObjSiblId(ptr noundef %0) #0 {
  %2 = alloca ptr, align 8
  store ptr %0, ptr %2, align 8
  %3 = load ptr, ptr %2, align 8
  %4 = call ptr @Mig_ObjMan(ptr noundef %3)
  %5 = getelementptr inbounds %struct.Mig_Man_t_, ptr %4, i32 0, i32 12
  %6 = call i32 @Vec_IntSize(ptr noundef %5)
  %7 = icmp eq i32 %6, 0
  br i1 %7, label %8, label %9

8:                                                ; preds = %1
  br label %16

9:                                                ; preds = %1
  %10 = load ptr, ptr %2, align 8
  %11 = call ptr @Mig_ObjMan(ptr noundef %10)
  %12 = getelementptr inbounds %struct.Mig_Man_t_, ptr %11, i32 0, i32 12
  %13 = load ptr, ptr %2, align 8
  %14 = call i32 @Mig_ObjId(ptr noundef %13)
  %15 = call i32 @Vec_IntEntry(ptr noundef %12, i32 noundef %14)
  br label %16

16:                                               ; preds = %9, %8
  %17 = phi i32 [ 0, %8 ], [ %15, %9 ]
  ret i32 %17
}

; Function Attrs: nounwind uwtable
define internal i32 @Vec_IntAddToEntry(ptr noundef %0, i32 noundef %1, i32 noundef %2) #0 {
  %4 = alloca ptr, align 8
  %5 = alloca i32, align 4
  %6 = alloca i32, align 4
  store ptr %0, ptr %4, align 8
  store i32 %1, ptr %5, align 4
  store i32 %2, ptr %6, align 4
  %7 = load i32, ptr %6, align 4
  %8 = load ptr, ptr %4, align 8
  %9 = getelementptr inbounds %struct.Vec_Int_t_, ptr %8, i32 0, i32 2
  %10 = load ptr, ptr %9, align 8
  %11 = load i32, ptr %5, align 4
  %12 = sext i32 %11 to i64
  %13 = getelementptr inbounds i32, ptr %10, i64 %12
  %14 = load i32, ptr %13, align 4
  %15 = add nsw i32 %14, %7
  store i32 %15, ptr %13, align 4
  ret i32 %15
}

; Function Attrs: nounwind uwtable
define internal i32 @Mig_ObjFaninId(ptr noundef %0, i32 noundef %1) #0 {
  %3 = alloca ptr, align 8
  %4 = alloca i32, align 4
  store ptr %0, ptr %3, align 8
  store i32 %1, ptr %4, align 4
  %5 = load ptr, ptr %3, align 8
  %6 = load i32, ptr %4, align 4
  %7 = call i32 @Mig_FanId(ptr noundef %5, i32 noundef %6)
  ret i32 %7
}

; Function Attrs: nounwind uwtable
define internal i32 @Mig_ObjHasFanin(ptr noundef %0, i32 noundef %1) #0 {
  %3 = alloca ptr, align 8
  %4 = alloca i32, align 4
  store ptr %0, ptr %3, align 8
  store i32 %1, ptr %4, align 4
  %5 = load i32, ptr %4, align 4
  %6 = icmp slt i32 %5, 3
  br i1 %6, label %7, label %12

7:                                                ; preds = %2
  %8 = load ptr, ptr %3, align 8
  %9 = load i32, ptr %4, align 4
  %10 = call i32 @Mig_FanId(ptr noundef %8, i32 noundef %9)
  %11 = icmp ne i32 %10, 2147483647
  br label %12

12:                                               ; preds = %7, %2
  %13 = phi i1 [ false, %2 ], [ %11, %7 ]
  %14 = zext i1 %13 to i32
  ret i32 %14
}

; Function Attrs: nounwind uwtable
define internal i32 @Mig_ObjIsNone(ptr noundef %0) #0 {
  %2 = alloca ptr, align 8
  store ptr %0, ptr %2, align 8
  %3 = load ptr, ptr %2, align 8
  %4 = call i32 @Mig_FanIsNone(ptr noundef %3, i32 noundef 3)
  ret i32 %4
}

; Function Attrs: nounwind uwtable
define internal ptr @Vec_PtrEntry(ptr noundef %0, i32 noundef %1) #0 {
  %3 = alloca ptr, align 8
  %4 = alloca i32, align 4
  store ptr %0, ptr %3, align 8
  store i32 %1, ptr %4, align 4
  %5 = load ptr, ptr %3, align 8
  %6 = getelementptr inbounds %struct.Vec_Ptr_t_, ptr %5, i32 0, i32 2
  %7 = load ptr, ptr %6, align 8
  %8 = load i32, ptr %4, align 4
  %9 = sext i32 %8 to i64
  %10 = getelementptr inbounds ptr, ptr %7, i64 %9
  %11 = load ptr, ptr %10, align 8
  ret ptr %11
}

; Function Attrs: nounwind uwtable
define internal i32 @Vec_PtrSize(ptr noundef %0) #0 {
  %2 = alloca ptr, align 8
  store ptr %0, ptr %2, align 8
  %3 = load ptr, ptr %2, align 8
  %4 = getelementptr inbounds %struct.Vec_Ptr_t_, ptr %3, i32 0, i32 1
  %5 = load i32, ptr %4, align 4
  ret i32 %5
}

; Function Attrs: nounwind uwtable
define internal void @Vec_IntFill(ptr noundef %0, i32 noundef %1, i32 noundef %2) #0 {
  %4 = alloca ptr, align 8
  %5 = alloca i32, align 4
  %6 = alloca i32, align 4
  %7 = alloca i32, align 4
  store ptr %0, ptr %4, align 8
  store i32 %1, ptr %5, align 4
  store i32 %2, ptr %6, align 4
  %8 = load ptr, ptr %4, align 8
  %9 = load i32, ptr %5, align 4
  call void @Vec_IntGrow(ptr noundef %8, i32 noundef %9)
  store i32 0, ptr %7, align 4
  br label %10

10:                                               ; preds = %22, %3
  %11 = load i32, ptr %7, align 4
  %12 = load i32, ptr %5, align 4
  %13 = icmp slt i32 %11, %12
  br i1 %13, label %14, label %25

14:                                               ; preds = %10
  %15 = load i32, ptr %6, align 4
  %16 = load ptr, ptr %4, align 8
  %17 = getelementptr inbounds %struct.Vec_Int_t_, ptr %16, i32 0, i32 2
  %18 = load ptr, ptr %17, align 8
  %19 = load i32, ptr %7, align 4
  %20 = sext i32 %19 to i64
  %21 = getelementptr inbounds i32, ptr %18, i64 %20
  store i32 %15, ptr %21, align 4
  br label %22

22:                                               ; preds = %14
  %23 = load i32, ptr %7, align 4
  %24 = add nsw i32 %23, 1
  store i32 %24, ptr %7, align 4
  br label %10, !llvm.loop !11

25:                                               ; preds = %10
  %26 = load i32, ptr %5, align 4
  %27 = load ptr, ptr %4, align 8
  %28 = getelementptr inbounds %struct.Vec_Int_t_, ptr %27, i32 0, i32 1
  store i32 %26, ptr %28, align 4
  ret void
}

; Function Attrs: nounwind uwtable
define internal i32 @Mig_ManObjNum(ptr noundef %0) #0 {
  %2 = alloca ptr, align 8
  store ptr %0, ptr %2, align 8
  %3 = load ptr, ptr %2, align 8
  %4 = getelementptr inbounds %struct.Mig_Man_t_, ptr %3, i32 0, i32 1
  %5 = load i32, ptr %4, align 8
  ret i32 %5
}

; Function Attrs: nounwind uwtable
define void @Mig_ManSetRefs(ptr noundef %0) #0 {
  %2 = alloca ptr, align 8
  %3 = alloca ptr, align 8
  %4 = alloca i32, align 4
  %5 = alloca i32, align 4
  store ptr %0, ptr %2, align 8
  %6 = load ptr, ptr %2, align 8
  %7 = getelementptr inbounds %struct.Mig_Man_t_, ptr %6, i32 0, i32 13
  %8 = load ptr, ptr %2, align 8
  %9 = call i32 @Mig_ManObjNum(ptr noundef %8)
  call void @Vec_IntFill(ptr noundef %7, i32 noundef %9, i32 noundef 0)
  %10 = load ptr, ptr %2, align 8
  %11 = getelementptr inbounds %struct.Mig_Man_t_, ptr %10, i32 0, i32 8
  store i32 0, ptr %11, align 8
  br label %12

12:                                               ; preds = %77, %1
  %13 = load ptr, ptr %2, align 8
  %14 = getelementptr inbounds %struct.Mig_Man_t_, ptr %13, i32 0, i32 8
  %15 = load i32, ptr %14, align 8
  %16 = load ptr, ptr %2, align 8
  %17 = getelementptr inbounds %struct.Mig_Man_t_, ptr %16, i32 0, i32 4
  %18 = call i32 @Vec_PtrSize(ptr noundef %17)
  %19 = icmp slt i32 %15, %18
  br i1 %19, label %20, label %30

20:                                               ; preds = %12
  %21 = load ptr, ptr %2, align 8
  %22 = getelementptr inbounds %struct.Mig_Man_t_, ptr %21, i32 0, i32 4
  %23 = load ptr, ptr %2, align 8
  %24 = getelementptr inbounds %struct.Mig_Man_t_, ptr %23, i32 0, i32 8
  %25 = load i32, ptr %24, align 8
  %26 = call ptr @Vec_PtrEntry(ptr noundef %22, i32 noundef %25)
  %27 = load ptr, ptr %2, align 8
  %28 = getelementptr inbounds %struct.Mig_Man_t_, ptr %27, i32 0, i32 7
  store ptr %26, ptr %28, align 8
  %29 = icmp ne ptr %26, null
  br label %30

30:                                               ; preds = %20, %12
  %31 = phi i1 [ false, %12 ], [ %29, %20 ]
  br i1 %31, label %32, label %82

32:                                               ; preds = %30
  %33 = load ptr, ptr %2, align 8
  %34 = getelementptr inbounds %struct.Mig_Man_t_, ptr %33, i32 0, i32 7
  %35 = load ptr, ptr %34, align 8
  store ptr %35, ptr %3, align 8
  br label %36

36:                                               ; preds = %73, %32
  %37 = load ptr, ptr %3, align 8
  %38 = call i32 @Mig_ObjIsNone(ptr noundef %37)
  %39 = icmp ne i32 %38, 0
  %40 = xor i1 %39, true
  br i1 %40, label %41, label %76

41:                                               ; preds = %36
  store i32 0, ptr %4, align 4
  br label %42

42:                                               ; preds = %59, %41
  %43 = load ptr, ptr %3, align 8
  %44 = load i32, ptr %4, align 4
  %45 = call i32 @Mig_ObjHasFanin(ptr noundef %43, i32 noundef %44)
  %46 = icmp ne i32 %45, 0
  br i1 %46, label %47, label %52

47:                                               ; preds = %42
  %48 = load ptr, ptr %3, align 8
  %49 = load i32, ptr %4, align 4
  %50 = call i32 @Mig_ObjFaninId(ptr noundef %48, i32 noundef %49)
  store i32 %50, ptr %5, align 4
  %51 = icmp ne i32 %50, 0
  br label %52

52:                                               ; preds = %47, %42
  %53 = phi i1 [ false, %42 ], [ %51, %47 ]
  br i1 %53, label %54, label %62

54:                                               ; preds = %52
  %55 = load ptr, ptr %2, align 8
  %56 = getelementptr inbounds %struct.Mig_Man_t_, ptr %55, i32 0, i32 13
  %57 = load i32, ptr %5, align 4
  %58 = call i32 @Vec_IntAddToEntry(ptr noundef %56, i32 noundef %57, i32 noundef 1)
  br label %59

59:                                               ; preds = %54
  %60 = load i32, ptr %4, align 4
  %61 = add nsw i32 %60, 1
  store i32 %61, ptr %4, align 4
  br label %42, !llvm.loop !8

62:                                               ; preds = %52
  %63 = load ptr, ptr %3, align 8
  %64 = call i32 @Mig_ObjSiblId(ptr noundef %63)
  %65 = icmp ne i32 %64, 0
  br i1 %65, label %66, label %72

66:                                               ; preds = %62
  %67 = load ptr, ptr %2, align 8
  %68 = getelementptr inbounds %struct.Mig_Man_t_, ptr %67, i32 0, i32 13
  %69 = load ptr, ptr %3, align 8
  %70 = call i32 @Mig_ObjSiblId(ptr noundef %69)
  %71 = call i32 @Vec_IntAddToEntry(ptr noundef %68, i32 noundef %70, i32 noundef 1)
  br label %72

72:                                               ; preds = %66, %62
  br label %73

73:                                               ; preds = %72
  %74 = load ptr, ptr %3, align 8
  %75 = getelementptr inbounds %struct.Mig_Obj_t_, ptr %74, i32 1
  store ptr %75, ptr %3, align 8
  br label %36, !llvm.loop !9

76:                                               ; preds = %36
  br label %77

77:                                               ; preds = %76
  %78 = load ptr, ptr %2, align 8
  %79 = getelementptr inbounds %struct.Mig_Man_t_, ptr %78, i32 0, i32 8
  %80 = load i32, ptr %79, align 8
  %81 = add nsw i32 %80, 1
  store i32 %81, ptr %79, align 8
  br label %12, !llvm.loop !10

82:                                               ; preds = %30
  ret void
}