; Function Attrs: nounwind uwtable
define void @Mig_ManSetRefs(ptr noundef captures(none) %0) local_unnamed_addr #2 {
  %2 = getelementptr inbounds nuw i8, ptr %0, i64 136
  %3 = getelementptr i8, ptr %0, i64 8
  %.val31 = load i32, ptr %3, align 8
  %4 = load i32, ptr %2, align 8
  %.not.i.i = icmp slt i32 %4, %.val31
  br i1 %.not.i.i, label %5, label %Vec_IntGrow.exit.i

5:                                                ; preds = %1
  %6 = getelementptr inbounds nuw i8, ptr %0, i64 144
  %7 = load ptr, ptr %6, align 8
  %.not9.i.i = icmp eq ptr %7, null
  %8 = sext i32 %.val31 to i64
  %9 = shl nsw i64 %8, 2
  br i1 %.not9.i.i, label %12, label %10

10:                                               ; preds = %5
  %11 = tail call ptr @realloc(ptr noundef nonnull %7, i64 noundef %9) #17
  br label %14

12:                                               ; preds = %5
  %13 = tail call noalias ptr @malloc(i64 noundef %9) #15
  br label %14

14:                                               ; preds = %12, %10
  %15 = phi ptr [ %11, %10 ], [ %13, %12 ]
  store ptr %15, ptr %6, align 8
  store i32 %.val31, ptr %2, align 8
  br label %Vec_IntGrow.exit.i

Vec_IntGrow.exit.i:                               ; preds = %14, %1
  %16 = icmp sgt i32 %.val31, 0
  br i1 %16, label %.lr.ph.i, label %Vec_IntFill.exit

.lr.ph.i:                                         ; preds = %Vec_IntGrow.exit.i
  %17 = getelementptr inbounds nuw i8, ptr %0, i64 144
  %wide.trip.count.i = zext nneg i32 %.val31 to i64
  br label %18

18:                                               ; preds = %18, %.lr.ph.i
  %indvars.iv.i = phi i64 [ 0, %.lr.ph.i ], [ %indvars.iv.next.i, %18 ]
  %19 = load ptr, ptr %17, align 8
  %20 = getelementptr inbounds nuw i32, ptr %19, i64 %indvars.iv.i
  store i32 0, ptr %20, align 4
  %indvars.iv.next.i = add nuw nsw i64 %indvars.iv.i, 1
  %exitcond.not.i = icmp eq i64 %indvars.iv.next.i, %wide.trip.count.i
  br i1 %exitcond.not.i, label %Vec_IntFill.exit, label %18, !llvm.loop !8

Vec_IntFill.exit:                                 ; preds = %18, %Vec_IntGrow.exit.i
  %21 = getelementptr inbounds nuw i8, ptr %0, i64 140
  store i32 %.val31, ptr %21, align 4
  %22 = getelementptr inbounds nuw i8, ptr %0, i64 80
  %23 = getelementptr i8, ptr %0, i64 32
  %24 = getelementptr i8, ptr %0, i64 28
  store i32 0, ptr %22, align 8
  %.val44 = load i32, ptr %24, align 4
  %25 = icmp sgt i32 %.val44, 0
  br i1 %25, label %.lr.ph, label %.critedge

.lr.ph:                                           ; preds = %Vec_IntFill.exit
  %26 = getelementptr inbounds nuw i8, ptr %0, i64 72
  %27 = getelementptr i8, ptr %0, i64 144
  br label %28

28:                                               ; preds = %.lr.ph, %._crit_edge
  %.val48 = phi i32 [ %.val44, %.lr.ph ], [ %.val, %._crit_edge ]
  %storemerge45 = phi i32 [ 0, %.lr.ph ], [ %64, %._crit_edge ]
  %.val30 = load ptr, ptr %23, align 8
  %29 = sext i32 %storemerge45 to i64
  %30 = getelementptr inbounds ptr, ptr %.val30, i64 %29
  %31 = load ptr, ptr %30, align 8
  store ptr %31, ptr %26, align 8
  %.not = icmp eq ptr %31, null
  br i1 %.not, label %.critedge, label %.preheader40

.preheader40:                                     ; preds = %28
  %32 = getelementptr i8, ptr %31, i64 12
  %.0.val42 = load i32, ptr %32, align 4
  %33 = icmp ult i32 %.0.val42, -2
  br i1 %33, label %.preheader, label %._crit_edge

.preheader:                                       ; preds = %.preheader40, %Mig_ObjSiblId.exit.thread
  %34 = phi ptr [ %61, %Mig_ObjSiblId.exit.thread ], [ %32, %.preheader40 ]
  %.043 = phi ptr [ %60, %Mig_ObjSiblId.exit.thread ], [ %31, %.preheader40 ]
  br label %Mig_ObjHasFanin.exit

Mig_ObjHasFanin.exit:                             ; preds = %.preheader, %37
  %indvars.iv = phi i64 [ 0, %.preheader ], [ %indvars.iv.next, %37 ]
  %35 = getelementptr inbounds nuw [4 x %struct.Mig_Fan_t_], ptr %.043, i64 0, i64 %indvars.iv
  %36 = load i32, ptr %35, align 4
  switch i32 %36, label %37 [
    i32 -1, label %.critedge2
    i32 -2, label %.critedge2
    i32 1, label %.critedge2
    i32 0, label %.critedge2
  ]

37:                                               ; preds = %Mig_ObjHasFanin.exit
  %38 = lshr i32 %36, 1
  %.val32 = load ptr, ptr %27, align 8
  %39 = zext nneg i32 %38 to i64
  %40 = getelementptr inbounds nuw i32, ptr %.val32, i64 %39
  %41 = load i32, ptr %40, align 4
  %42 = add nsw i32 %41, 1
  store i32 %42, ptr %40, align 4
  %indvars.iv.next = add nuw nsw i64 %indvars.iv, 1
  %exitcond.not = icmp eq i64 %indvars.iv.next, 3
  br i1 %exitcond.not, label %.critedge2, label %Mig_ObjHasFanin.exit, !llvm.loop !9

.critedge2:                                       ; preds = %Mig_ObjHasFanin.exit, %Mig_ObjHasFanin.exit, %Mig_ObjHasFanin.exit, %Mig_ObjHasFanin.exit, %37
  %.val.i.i = load i32, ptr %34, align 4
  %43 = lshr i32 %.val.i.i, 1
  %44 = and i32 %43, 4095
  %45 = zext nneg i32 %44 to i64
  %46 = sub nsw i64 0, %45
  %47 = getelementptr inbounds %struct.Mig_Obj_t_, ptr %.043, i64 %46
  %48 = getelementptr inbounds i8, ptr %47, i64 -16
  %49 = load ptr, ptr %48, align 8
  %50 = getelementptr i8, ptr %49, i64 124
  %.val3.i = load i32, ptr %50, align 4
  %51 = icmp eq i32 %.val3.i, 0
  br i1 %51, label %Mig_ObjSiblId.exit.thread, label %Mig_ObjSiblId.exit

Mig_ObjSiblId.exit:                               ; preds = %.critedge2
  %52 = getelementptr i8, ptr %49, i64 128
  %.val4.i = load ptr, ptr %52, align 8
  %53 = zext nneg i32 %43 to i64
  %54 = getelementptr inbounds nuw i32, ptr %.val4.i, i64 %53
  %55 = load i32, ptr %54, align 4
  %.not29 = icmp eq i32 %55, 0
  br i1 %.not29, label %Mig_ObjSiblId.exit.thread, label %Mig_ObjSiblId.exit37

Mig_ObjSiblId.exit37:                             ; preds = %Mig_ObjSiblId.exit
  %.val33 = load ptr, ptr %27, align 8
  %56 = sext i32 %55 to i64
  %57 = getelementptr inbounds i32, ptr %.val33, i64 %56
  %58 = load i32, ptr %57, align 4
  %59 = add nsw i32 %58, 1
  store i32 %59, ptr %57, align 4
  br label %Mig_ObjSiblId.exit.thread

Mig_ObjSiblId.exit.thread:                        ; preds = %.critedge2, %Mig_ObjSiblId.exit, %Mig_ObjSiblId.exit37
  %60 = getelementptr inbounds nuw i8, ptr %.043, i64 16
  %61 = getelementptr i8, ptr %.043, i64 28
  %.0.val = load i32, ptr %61, align 4
  %62 = icmp ult i32 %.0.val, -2
  br i1 %62, label %.preheader, label %._crit_edge.loopexit, !llvm.loop !10

._crit_edge.loopexit:                             ; preds = %Mig_ObjSiblId.exit.thread
  %.pre = load i32, ptr %22, align 8
  %.val.pre = load i32, ptr %24, align 4
  br label %._crit_edge

._crit_edge:                                      ; preds = %._crit_edge.loopexit, %.preheader40
  %.val = phi i32 [ %.val.pre, %._crit_edge.loopexit ], [ %.val48, %.preheader40 ]
  %63 = phi i32 [ %.pre, %._crit_edge.loopexit ], [ %storemerge45, %.preheader40 ]
  %64 = add nsw i32 %63, 1
  store i32 %64, ptr %22, align 8
  %65 = icmp slt i32 %64, %.val
  br i1 %65, label %28, label %.critedge, !llvm.loop !11

.critedge:                                        ; preds = %28, %._crit_edge, %Vec_IntFill.exit
  ret void
}